; Function Attrs: mustprogress nounwind uwtable
define dso_local noundef ptr @_ZNK4llvm17X86TargetLowering21getSSPStackGuardCheckERKNS_6ModuleE(ptr noundef nonnull align 8 dereferenceable(408160) %0, ptr noundef nonnull align 8 dereferenceable(857) %1) unnamed_addr #0 align 2 {
  %3 = getelementptr inbounds nuw i8, ptr %0, i64 408128
  %4 = load ptr, ptr %3, align 8
  %5 = getelementptr inbounds nuw i8, ptr %4, i64 540
  %6 = load i32, ptr %5, align 4
  %7 = icmp eq i32 %6, 14
  %8 = getelementptr inbounds nuw i8, ptr %4, i64 544
  %9 = load i32, ptr %8, align 8
  %10 = icmp eq i32 %9, 0
  %11 = add i32 %9, -19
  %12 = icmp ult i32 %11, 2
  %13 = or i1 %10, %12
  %or.cond5 = select i1 %7, i1 %13, i1 false
  br i1 %or.cond5, label %_ZNK4llvm6Triple24isWindowsMSVCEnvironmentEv.exit.thread, label %15

_ZNK4llvm6Triple24isWindowsMSVCEnvironmentEv.exit.thread: ; preds = %2
  %14 = tail call noundef ptr @_ZNK4llvm6Module11getFunctionENS_9StringRefE(ptr noundef nonnull align 8 dereferenceable(857) %1, ptr nonnull @.str.6, i64 23) #23
  br label %17

15:                                               ; preds = %2
  %16 = tail call noundef ptr @_ZNK4llvm18TargetLoweringBase21getSSPStackGuardCheckERKNS_6ModuleE(ptr noundef nonnull align 8 dereferenceable(408123) %0, ptr noundef nonnull align 8 dereferenceable(857) %1) #23
  br label %17

17:                                               ; preds = %15, %_ZNK4llvm6Triple24isWindowsMSVCEnvironmentEv.exit.thread
  %.0 = phi ptr [ %14, %_ZNK4llvm6Triple24isWindowsMSVCEnvironmentEv.exit.thread ], [ %16, %15 ]
  ret ptr %.0
}